target datalayout = "e-m:e-p270:32:32-p271:32:32-p272:64:64-i64:64-i128:128-f80:128-n8:16:32:64-S128"
target triple = "x86_64-pc-linux-gnu"

%class.Register = type { i32 }
%class.XMMRegister = type { i32 }
%class.MachNode = type { %class.Node.base, i8, i16, ptr }
%class.Node.base = type <{ ptr, ptr, ptr, i32, i32, i32, i32, i32, i32, i32 }>
%class.copySignF_regNode = type { %class.MachNode, [5 x ptr] }

@_ZL5noreg = internal constant %class.Register { i32 -1 }, align 4
@_ZL6xnoreg = internal constant %class.XMMRegister { i32 -1 }, align 4

; Function Attrs: mustprogress nounwind uwtable
define linkonce_odr hidden void @_ZN11XMMRegisterC2Eib(ptr noundef nonnull align 4 dereferenceable(4) %0, i32 noundef %1, i1 noundef zeroext %2) unnamed_addr #1 comdat align 2 {
  %4 = alloca ptr, align 8
  %5 = alloca i32, align 4
  %6 = alloca i8, align 1
  store ptr %0, ptr %4, align 8
  store i32 %1, ptr %5, align 4
  %7 = zext i1 %2 to i8
  store i8 %7, ptr %6, align 1
  %8 = load ptr, ptr %4, align 8
  %9 = getelementptr inbounds %class.XMMRegister, ptr %8, i32 0, i32 0
  %10 = load i32, ptr %5, align 4
  store i32 %10, ptr %9, align 4
  ret void
}

; Function Attrs: mustprogress nounwind uwtable
define linkonce_odr hidden void @_ZN8RegisterC2Eib(ptr noundef nonnull align 4 dereferenceable(4) %0, i32 noundef %1, i1 noundef zeroext %2) unnamed_addr #1 comdat align 2 {
  %4 = alloca ptr, align 8
  %5 = alloca i32, align 4
  %6 = alloca i8, align 1
  store ptr %0, ptr %4, align 8
  store i32 %1, ptr %5, align 4
  %7 = zext i1 %2 to i8
  store i8 %7, ptr %6, align 1
  %8 = load ptr, ptr %4, align 8
  %9 = getelementptr inbounds %class.Register, ptr %8, i32 0, i32 0
  %10 = load i32, ptr %5, align 4
  store i32 %10, ptr %9, align 4
  ret void
}

; Function Attrs: mustprogress nounwind uwtable
define linkonce_odr hidden i32 @_Z14as_XMMRegisteri(i32 noundef %0) #1 comdat {
  %2 = alloca %class.XMMRegister, align 4
  %3 = alloca i32, align 4
  store i32 %0, ptr %3, align 4
  %4 = load i32, ptr %3, align 4
  %5 = icmp sle i32 0, %4
  br i1 %5, label %6, label %11

6:                                                ; preds = %1
  %7 = load i32, ptr %3, align 4
  %8 = icmp slt i32 %7, 32
  br i1 %8, label %9, label %11

9:                                                ; preds = %6
  %10 = load i32, ptr %3, align 4
  call void @_ZN11XMMRegisterC2Eib(ptr noundef nonnull align 4 dereferenceable(4) %2, i32 noundef %10, i1 noundef zeroext false)
  br label %12

11:                                               ; preds = %6, %1
  call void @llvm.memcpy.p0.p0.i64(ptr align 4 %2, ptr align 4 @_ZL6xnoreg, i64 4, i1 false)
  br label %12

12:                                               ; preds = %11, %9
  %13 = getelementptr inbounds %class.XMMRegister, ptr %2, i32 0, i32 0
  %14 = load i32, ptr %13, align 4
  ret i32 %14
}

; Function Attrs: mustprogress nounwind uwtable
define linkonce_odr hidden i32 @_Z11as_Registeri(i32 noundef %0) #1 comdat {
  %2 = alloca %class.Register, align 4
  %3 = alloca i32, align 4
  store i32 %0, ptr %3, align 4
  %4 = load i32, ptr %3, align 4
  %5 = icmp sle i32 0, %4
  br i1 %5, label %6, label %11

6:                                                ; preds = %1
  %7 = load i32, ptr %3, align 4
  %8 = icmp slt i32 %7, 32
  br i1 %8, label %9, label %11

9:                                                ; preds = %6
  %10 = load i32, ptr %3, align 4
  call void @_ZN8RegisterC2Eib(ptr noundef nonnull align 4 dereferenceable(4) %2, i32 noundef %10, i1 noundef zeroext false)
  br label %12

11:                                               ; preds = %6, %1
  call void @llvm.memcpy.p0.p0.i64(ptr align 4 %2, ptr align 4 @_ZL5noreg, i64 4, i1 false)
  br label %12

12:                                               ; preds = %11, %9
  %13 = getelementptr inbounds %class.Register, ptr %2, i32 0, i32 0
  %14 = load i32, ptr %13, align 4
  ret i32 %14
}

; Function Attrs: mustprogress nounwind uwtable
define linkonce_odr hidden i32 @_ZNK8MachOper14as_XMMRegisterEP13PhaseRegAllocPK4Nodei(ptr noundef nonnull align 8 dereferenceable(8) %0, ptr noundef %1, ptr noundef %2, i32 noundef %3) #1 comdat align 2 {
  %5 = alloca %class.XMMRegister, align 4
  %6 = alloca ptr, align 8
  %7 = alloca ptr, align 8
  %8 = alloca ptr, align 8
  %9 = alloca i32, align 4
  store ptr %0, ptr %6, align 8
  store ptr %1, ptr %7, align 8
  store ptr %2, ptr %8, align 8
  store i32 %3, ptr %9, align 4
  %10 = load ptr, ptr %6, align 8
  %11 = load ptr, ptr %7, align 8
  %12 = load ptr, ptr %8, align 8
  %13 = load i32, ptr %9, align 4
  %14 = load ptr, ptr %10, align 8
  %15 = getelementptr inbounds ptr, ptr %14, i64 5
  %16 = load ptr, ptr %15, align 8
  %17 = call noundef i32 %16(ptr noundef nonnull align 8 dereferenceable(8) %10, ptr noundef %11, ptr noundef %12, i32 noundef %13)
  %18 = call i32 @_Z14as_XMMRegisteri(i32 noundef %17)
  %19 = getelementptr inbounds %class.XMMRegister, ptr %5, i32 0, i32 0
  store i32 %18, ptr %19, align 4
  %20 = getelementptr inbounds %class.XMMRegister, ptr %5, i32 0, i32 0
  %21 = load i32, ptr %20, align 4
  ret i32 %21
}

; Function Attrs: mustprogress nounwind uwtable
define linkonce_odr hidden i32 @_ZNK8MachOper11as_RegisterEP13PhaseRegAllocPK4Nodei(ptr noundef nonnull align 8 dereferenceable(8) %0, ptr noundef %1, ptr noundef %2, i32 noundef %3) #1 comdat align 2 {
  %5 = alloca %class.Register, align 4
  %6 = alloca ptr, align 8
  %7 = alloca ptr, align 8
  %8 = alloca ptr, align 8
  %9 = alloca i32, align 4
  store ptr %0, ptr %6, align 8
  store ptr %1, ptr %7, align 8
  store ptr %2, ptr %8, align 8
  store i32 %3, ptr %9, align 4
  %10 = load ptr, ptr %6, align 8
  %11 = load ptr, ptr %7, align 8
  %12 = load ptr, ptr %8, align 8
  %13 = load i32, ptr %9, align 4
  %14 = load ptr, ptr %10, align 8
  %15 = getelementptr inbounds ptr, ptr %14, i64 5
  %16 = load ptr, ptr %15, align 8
  %17 = call noundef i32 %16(ptr noundef nonnull align 8 dereferenceable(8) %10, ptr noundef %11, ptr noundef %12, i32 noundef %13)
  %18 = call i32 @_Z11as_Registeri(i32 noundef %17)
  %19 = getelementptr inbounds %class.Register, ptr %5, i32 0, i32 0
  store i32 %18, ptr %19, align 4
  %20 = getelementptr inbounds %class.Register, ptr %5, i32 0, i32 0
  %21 = load i32, ptr %20, align 4
  ret i32 %21
}

; Function Attrs: mustprogress nounwind uwtable
define linkonce_odr hidden noundef ptr @_ZNK17copySignF_regNode10opnd_arrayEj(ptr noundef nonnull align 8 dereferenceable(104) %0, i32 noundef %1) #1 comdat align 2 {
  %3 = alloca ptr, align 8
  %4 = alloca i32, align 4
  store ptr %0, ptr %3, align 8
  store i32 %1, ptr %4, align 4
  %5 = load ptr, ptr %3, align 8
  %6 = getelementptr inbounds %class.copySignF_regNode, ptr %5, i32 0, i32 1
  %7 = load i32, ptr %4, align 4
  %8 = zext i32 %7 to i64
  %9 = getelementptr inbounds [5 x ptr], ptr %6, i64 0, i64 %8
  %10 = load ptr, ptr %9, align 8
  ret ptr %10
}

; Function Attrs: mustprogress nounwind uwtable
define hidden void @_ZNK17copySignF_regNode4emitEP17C2_MacroAssemblerP13PhaseRegAlloc(ptr noundef nonnull align 8 dereferenceable(104) %0, ptr noundef %1, ptr noundef %2) unnamed_addr #1 align 2 {
  %4 = alloca ptr, align 8
  %5 = alloca ptr, align 8
  %6 = alloca ptr, align 8
  %7 = alloca i32, align 4
  %8 = alloca i32, align 4
  %9 = alloca i32, align 4
  %10 = alloca i32, align 4
  %11 = alloca i32, align 4
  %12 = alloca %class.Register, align 4
  %13 = alloca %class.XMMRegister, align 4
  %14 = alloca %class.Register, align 4
  %15 = alloca %class.XMMRegister, align 4
  %16 = alloca %class.XMMRegister, align 4
  %17 = alloca %class.XMMRegister, align 4
  store ptr %0, ptr %4, align 8
  store ptr %1, ptr %5, align 8
  store ptr %2, ptr %6, align 8
  %18 = load ptr, ptr %4, align 8
  store i32 1, ptr %7, align 4
  store i32 1, ptr %8, align 4
  %19 = load i32, ptr %8, align 4
  %20 = call noundef ptr @_ZNK17copySignF_regNode10opnd_arrayEj(ptr noundef nonnull align 8 dereferenceable(104) %18, i32 noundef 1)
  %21 = load ptr, ptr %20, align 8
  %22 = getelementptr inbounds ptr, ptr %21, i64 1
  %23 = load ptr, ptr %22, align 8
  %24 = call noundef i32 %23(ptr noundef nonnull align 8 dereferenceable(8) %20)
  %25 = add i32 %19, %24
  store i32 %25, ptr %9, align 4
  %26 = load i32, ptr %9, align 4
  %27 = call noundef ptr @_ZNK17copySignF_regNode10opnd_arrayEj(ptr noundef nonnull align 8 dereferenceable(104) %18, i32 noundef 2)
  %28 = load ptr, ptr %27, align 8
  %29 = getelementptr inbounds ptr, ptr %28, i64 1
  %30 = load ptr, ptr %29, align 8
  %31 = call noundef i32 %30(ptr noundef nonnull align 8 dereferenceable(8) %27)
  %32 = add i32 %26, %31
  store i32 %32, ptr %10, align 4
  %33 = load i32, ptr %10, align 4
  %34 = call noundef ptr @_ZNK17copySignF_regNode10opnd_arrayEj(ptr noundef nonnull align 8 dereferenceable(104) %18, i32 noundef 3)
  %35 = load ptr, ptr %34, align 8
  %36 = getelementptr inbounds ptr, ptr %35, i64 1
  %37 = load ptr, ptr %36, align 8
  %38 = call noundef i32 %37(ptr noundef nonnull align 8 dereferenceable(8) %34)
  %39 = add i32 %33, %38
  store i32 %39, ptr %11, align 4
  %40 = load ptr, ptr %5, align 8
  %41 = call noundef ptr @_ZNK17copySignF_regNode10opnd_arrayEj(ptr noundef nonnull align 8 dereferenceable(104) %18, i32 noundef 4)
  %42 = load ptr, ptr %6, align 8
  %43 = load i32, ptr %11, align 4
  %44 = call i32 @_ZNK8MachOper11as_RegisterEP13PhaseRegAllocPK4Nodei(ptr noundef nonnull align 8 dereferenceable(8) %41, ptr noundef %42, ptr noundef %18, i32 noundef %43)
  %45 = getelementptr inbounds %class.Register, ptr %12, i32 0, i32 0
  store i32 %44, ptr %45, align 4
  %46 = getelementptr inbounds %class.Register, ptr %12, i32 0, i32 0
  %47 = load i32, ptr %46, align 4
  call void @_ZN9Assembler4movlE8Registeri(ptr noundef nonnull align 8 dereferenceable(40) %40, i32 %47, i32 noundef 2147483647)
  %48 = load ptr, ptr %5, align 8
  %49 = call noundef ptr @_ZNK17copySignF_regNode10opnd_arrayEj(ptr noundef nonnull align 8 dereferenceable(104) %18, i32 noundef 3)
  %50 = load ptr, ptr %6, align 8
  %51 = load i32, ptr %10, align 4
  %52 = call i32 @_ZNK8MachOper14as_XMMRegisterEP13PhaseRegAllocPK4Nodei(ptr noundef nonnull align 8 dereferenceable(8) %49, ptr noundef %50, ptr noundef %18, i32 noundef %51)
  %53 = getelementptr inbounds %class.XMMRegister, ptr %13, i32 0, i32 0
  store i32 %52, ptr %53, align 4
  %54 = call noundef ptr @_ZNK17copySignF_regNode10opnd_arrayEj(ptr noundef nonnull align 8 dereferenceable(104) %18, i32 noundef 4)
  %55 = load ptr, ptr %6, align 8
  %56 = load i32, ptr %11, align 4
  %57 = call i32 @_ZNK8MachOper11as_RegisterEP13PhaseRegAllocPK4Nodei(ptr noundef nonnull align 8 dereferenceable(8) %54, ptr noundef %55, ptr noundef %18, i32 noundef %56)
  %58 = getelementptr inbounds %class.Register, ptr %14, i32 0, i32 0
  store i32 %57, ptr %58, align 4
  %59 = getelementptr inbounds %class.XMMRegister, ptr %13, i32 0, i32 0
  %60 = load i32, ptr %59, align 4
  %61 = getelementptr inbounds %class.Register, ptr %14, i32 0, i32 0
  %62 = load i32, ptr %61, align 4
  call void @_ZN9Assembler5movdlE11XMMRegister8Register(ptr noundef nonnull align 8 dereferenceable(40) %48, i32 %60, i32 %62)
  %63 = load ptr, ptr %5, align 8
  %64 = call noundef ptr @_ZNK17copySignF_regNode10opnd_arrayEj(ptr noundef nonnull align 8 dereferenceable(104) %18, i32 noundef 1)
  %65 = load ptr, ptr %6, align 8
  %66 = load i32, ptr %8, align 4
  %67 = call i32 @_ZNK8MachOper14as_XMMRegisterEP13PhaseRegAllocPK4Nodei(ptr noundef nonnull align 8 dereferenceable(8) %64, ptr noundef %65, ptr noundef %18, i32 noundef %66)
  %68 = getelementptr inbounds %class.XMMRegister, ptr %15, i32 0, i32 0
  store i32 %67, ptr %68, align 4
  %69 = call noundef ptr @_ZNK17copySignF_regNode10opnd_arrayEj(ptr noundef nonnull align 8 dereferenceable(104) %18, i32 noundef 2)
  %70 = load ptr, ptr %6, align 8
  %71 = load i32, ptr %9, align 4
  %72 = call i32 @_ZNK8MachOper14as_XMMRegisterEP13PhaseRegAllocPK4Nodei(ptr noundef nonnull align 8 dereferenceable(8) %69, ptr noundef %70, ptr noundef %18, i32 noundef %71)
  %73 = getelementptr inbounds %class.XMMRegister, ptr %16, i32 0, i32 0
  store i32 %72, ptr %73, align 4
  %74 = call noundef ptr @_ZNK17copySignF_regNode10opnd_arrayEj(ptr noundef nonnull align 8 dereferenceable(104) %18, i32 noundef 3)
  %75 = load ptr, ptr %6, align 8
  %76 = load i32, ptr %10, align 4
  %77 = call i32 @_ZNK8MachOper14as_XMMRegisterEP13PhaseRegAllocPK4Nodei(ptr noundef nonnull align 8 dereferenceable(8) %74, ptr noundef %75, ptr noundef %18, i32 noundef %76)
  %78 = getelementptr inbounds %class.XMMRegister, ptr %17, i32 0, i32 0
  store i32 %77, ptr %78, align 4
  %79 = getelementptr inbounds %class.XMMRegister, ptr %15, i32 0, i32 0
  %80 = load i32, ptr %79, align 4
  %81 = getelementptr inbounds %class.XMMRegister, ptr %16, i32 0, i32 0
  %82 = load i32, ptr %81, align 4
  %83 = getelementptr inbounds %class.XMMRegister, ptr %17, i32 0, i32 0
  %84 = load i32, ptr %83, align 4
  call void @_ZN9Assembler10vpternlogdE11XMMRegisteriS0_S0_i(ptr noundef nonnull align 8 dereferenceable(40) %63, i32 %80, i32 noundef 228, i32 %82, i32 %84, i32 noundef 0)
  ret void
}