; Function Attrs: mustprogress nounwind uwtable
define hidden void @_ZNK17copySignF_regNode4emitEP17C2_MacroAssemblerP13PhaseRegAlloc(ptr noundef nonnull align 8 dereferenceable(104) %0, ptr noundef %1, ptr noundef %2) unnamed_addr #3 align 2 {
  %4 = getelementptr inbounds i8, ptr %0, i64 72
  %5 = load ptr, ptr %4, align 8
  %6 = load ptr, ptr %5, align 8
  %7 = getelementptr inbounds i8, ptr %6, i64 8
  %8 = load ptr, ptr %7, align 8
  %9 = tail call noundef i32 %8(ptr noundef nonnull align 8 dereferenceable(8) %5) #23
  %10 = add i32 %9, 1
  %11 = getelementptr inbounds i8, ptr %0, i64 80
  %12 = load ptr, ptr %11, align 8
  %13 = load ptr, ptr %12, align 8
  %14 = getelementptr inbounds i8, ptr %13, i64 8
  %15 = load ptr, ptr %14, align 8
  %16 = tail call noundef i32 %15(ptr noundef nonnull align 8 dereferenceable(8) %12) #23
  %17 = add i32 %16, %10
  %18 = getelementptr inbounds i8, ptr %0, i64 88
  %19 = load ptr, ptr %18, align 8
  %20 = load ptr, ptr %19, align 8
  %21 = getelementptr inbounds i8, ptr %20, i64 8
  %22 = load ptr, ptr %21, align 8
  %23 = tail call noundef i32 %22(ptr noundef nonnull align 8 dereferenceable(8) %19) #23
  %24 = add i32 %23, %17
  %25 = getelementptr inbounds i8, ptr %0, i64 96
  %26 = load ptr, ptr %25, align 8
  %27 = load ptr, ptr %26, align 8
  %28 = getelementptr inbounds i8, ptr %27, i64 40
  %29 = load ptr, ptr %28, align 8
  %30 = tail call noundef i32 %29(ptr noundef nonnull align 8 dereferenceable(8) %26, ptr noundef %2, ptr noundef nonnull %0, i32 noundef %24) #23
  %or.cond.i.i = icmp ult i32 %30, 32
  %spec.select.i.i = select i1 %or.cond.i.i, i32 %30, i32 -1
  tail call void @_ZN9Assembler4movlE8Registeri(ptr noundef nonnull align 8 dereferenceable(40) %1, i32 %spec.select.i.i, i32 noundef 2147483647) #23
  %31 = load ptr, ptr %18, align 8
  %32 = load ptr, ptr %31, align 8
  %33 = getelementptr inbounds i8, ptr %32, i64 40
  %34 = load ptr, ptr %33, align 8
  %35 = tail call noundef i32 %34(ptr noundef nonnull align 8 dereferenceable(8) %31, ptr noundef %2, ptr noundef nonnull %0, i32 noundef %17) #23
  %or.cond.i.i23 = icmp ult i32 %35, 32
  %spec.select.i.i24 = select i1 %or.cond.i.i23, i32 %35, i32 -1
  %36 = load ptr, ptr %25, align 8
  %37 = load ptr, ptr %36, align 8
  %38 = getelementptr inbounds i8, ptr %37, i64 40
  %39 = load ptr, ptr %38, align 8
  %40 = tail call noundef i32 %39(ptr noundef nonnull align 8 dereferenceable(8) %36, ptr noundef %2, ptr noundef nonnull %0, i32 noundef %24) #23
  %or.cond.i.i25 = icmp ult i32 %40, 32
  %spec.select.i.i26 = select i1 %or.cond.i.i25, i32 %40, i32 -1
  tail call void @_ZN9Assembler5movdlE11XMMRegister8Register(ptr noundef nonnull align 8 dereferenceable(40) %1, i32 %spec.select.i.i24, i32 %spec.select.i.i26) #23
  %41 = load ptr, ptr %4, align 8
  %42 = load ptr, ptr %41, align 8
  %43 = getelementptr inbounds i8, ptr %42, i64 40
  %44 = load ptr, ptr %43, align 8
  %45 = tail call noundef i32 %44(ptr noundef nonnull align 8 dereferenceable(8) %41, ptr noundef %2, ptr noundef nonnull %0, i32 noundef 1) #23
  %or.cond.i.i27 = icmp ult i32 %45, 32
  %spec.select.i.i28 = select i1 %or.cond.i.i27, i32 %45, i32 -1
  %46 = load ptr, ptr %11, align 8
  %47 = load ptr, ptr %46, align 8
  %48 = getelementptr inbounds i8, ptr %47, i64 40
  %49 = load ptr, ptr %48, align 8
  %50 = tail call noundef i32 %49(ptr noundef nonnull align 8 dereferenceable(8) %46, ptr noundef %2, ptr noundef nonnull %0, i32 noundef %10) #23
  %or.cond.i.i29 = icmp ult i32 %50, 32
  %spec.select.i.i30 = select i1 %or.cond.i.i29, i32 %50, i32 -1
  %51 = load ptr, ptr %18, align 8
  %52 = load ptr, ptr %51, align 8
  %53 = getelementptr inbounds i8, ptr %52, i64 40
  %54 = load ptr, ptr %53, align 8
  %55 = tail call noundef i32 %54(ptr noundef nonnull align 8 dereferenceable(8) %51, ptr noundef %2, ptr noundef nonnull %0, i32 noundef %17) #23
  %or.cond.i.i31 = icmp ult i32 %55, 32
  %spec.select.i.i32 = select i1 %or.cond.i.i31, i32 %55, i32 -1
  tail call void @_ZN9Assembler10vpternlogdE11XMMRegisteriS0_S0_i(ptr noundef nonnull align 8 dereferenceable(40) %1, i32 %spec.select.i.i28, i32 noundef 228, i32 %spec.select.i.i30, i32 %spec.select.i.i32, i32 noundef 0) #23
  ret void
}